; ModuleID = 'source-C-CXX/47/1461.c'
source_filename = "source-C-CXX/47/1461.c"
target datalayout = "e-m:e-p270:32:32-p271:32:32-p272:64:64-i64:64-f80:128-n8:16:32:64-S128"
target triple = "x86_64-pc-linux-gnu"

@.str = private unnamed_addr constant [5 x i8] c"%d%d\00", align 1
@.str.1 = private unnamed_addr constant [4 x i8] c"%d\0A\00", align 1
@.str.2 = private unnamed_addr constant [4 x i8] c"%d \00", align 1

; Function Attrs: nofree nounwind sspstrong uwtable
define dso_local i32 @main() local_unnamed_addr #0 {
  %1 = alloca i32, align 4
  %2 = alloca i32, align 4
  %3 = alloca [9 x [9 x i32]], align 16
  %4 = bitcast [9 x [9 x i32]]* %3 to i8*
  %5 = alloca [9 x [9 x i32]], align 16
  %6 = bitcast [9 x [9 x i32]]* %5 to i8*
  %7 = bitcast i32* %1 to i8*
  call void @llvm.lifetime.start.p0i8(i64 4, i8* nonnull %7) #5
  %8 = bitcast i32* %2 to i8*
  call void @llvm.lifetime.start.p0i8(i64 4, i8* nonnull %8) #5
  call void @llvm.lifetime.start.p0i8(i64 324, i8* nonnull %4) #5
  call void @llvm.lifetime.start.p0i8(i64 324, i8* nonnull %6) #5
  %9 = call i32 (i8*, ...) @__isoc99_scanf(i8* getelementptr inbounds ([5 x i8], [5 x i8]* @.str, i64 0, i64 0), i32* nonnull %2, i32* nonnull %1)
  call void @llvm.memset.p0i8.i64(i8* noundef nonnull align 16 dereferenceable(324) %4, i8 0, i64 324, i1 false)
  call void @llvm.memset.p0i8.i64(i8* noundef nonnull align 16 dereferenceable(324) %6, i8 0, i64 324, i1 false)
  %10 = load i32, i32* %2, align 4, !tbaa !5
  %11 = getelementptr inbounds [9 x [9 x i32]], [9 x [9 x i32]]* %3, i64 0, i64 4, i64 4
  store i32 %10, i32* %11, align 16, !tbaa !5
  %12 = getelementptr inbounds [9 x [9 x i32]], [9 x [9 x i32]]* %5, i64 0, i64 4, i64 4
  store i32 %10, i32* %12, align 16, !tbaa !5
  %13 = load i32, i32* %1, align 4, !tbaa !5
  %14 = icmp slt i32 %13, 1
  br i1 %14, label %15, label %16

15:                                               ; preds = %69, %0
  br label %73

16:                                               ; preds = %0, %69
  %17 = phi i32 [ %70, %69 ], [ 1, %0 ]
  br label %18

18:                                               ; preds = %16, %65
  %19 = phi i64 [ 0, %16 ], [ %66, %65 ]
  %20 = phi i64 [ -1, %16 ], [ %67, %65 ]
  %21 = add nsw i64 %20, 1
  %22 = add nsw i64 %20, 2
  br label %23

23:                                               ; preds = %18, %61
  %24 = phi i64 [ 0, %18 ], [ %63, %61 ]
  %25 = phi i64 [ -1, %18 ], [ %62, %61 ]
  %26 = getelementptr inbounds [9 x [9 x i32]], [9 x [9 x i32]]* %3, i64 0, i64 %19, i64 %24
  %27 = load i32, i32* %26, align 4, !tbaa !5
  %28 = icmp eq i32 %27, 0
  br i1 %28, label %29, label %31

29:                                               ; preds = %23
  %30 = add nsw i64 %25, 1
  br label %61

31:                                               ; preds = %23
  %32 = getelementptr inbounds [9 x [9 x i32]], [9 x [9 x i32]]* %5, i64 0, i64 %20, i64 %25
  %33 = load i32, i32* %32, align 4, !tbaa !5
  %34 = add nsw i32 %33, %27
  store i32 %34, i32* %32, align 4, !tbaa !5
  %35 = add nsw i64 %25, 1
  %36 = getelementptr inbounds [9 x [9 x i32]], [9 x [9 x i32]]* %5, i64 0, i64 %20, i64 %35
  %37 = load i32, i32* %36, align 4, !tbaa !5
  %38 = add nsw i32 %37, %27
  store i32 %38, i32* %36, align 4, !tbaa !5
  %39 = add nsw i64 %25, 2
  %40 = getelementptr inbounds [9 x [9 x i32]], [9 x [9 x i32]]* %5, i64 0, i64 %20, i64 %39
  %41 = load i32, i32* %40, align 4, !tbaa !5
  %42 = add nsw i32 %41, %27
  store i32 %42, i32* %40, align 4, !tbaa !5
  %43 = getelementptr inbounds [9 x [9 x i32]], [9 x [9 x i32]]* %5, i64 0, i64 %21, i64 %25
  %44 = load i32, i32* %43, align 4, !tbaa !5
  %45 = add nsw i32 %44, %27
  store i32 %45, i32* %43, align 4, !tbaa !5
  %46 = getelementptr inbounds [9 x [9 x i32]], [9 x [9 x i32]]* %5, i64 0, i64 %21, i64 %35
  %47 = load i32, i32* %46, align 4, !tbaa !5
  %48 = add nsw i32 %47, %27
  store i32 %48, i32* %46, align 4, !tbaa !5
  %49 = getelementptr inbounds [9 x [9 x i32]], [9 x [9 x i32]]* %5, i64 0, i64 %21, i64 %39
  %50 = load i32, i32* %49, align 4, !tbaa !5
  %51 = add nsw i32 %50, %27
  store i32 %51, i32* %49, align 4, !tbaa !5
  %52 = getelementptr inbounds [9 x [9 x i32]], [9 x [9 x i32]]* %5, i64 0, i64 %22, i64 %25
  %53 = load i32, i32* %52, align 4, !tbaa !5
  %54 = add nsw i32 %53, %27
  store i32 %54, i32* %52, align 4, !tbaa !5
  %55 = getelementptr inbounds [9 x [9 x i32]], [9 x [9 x i32]]* %5, i64 0, i64 %22, i64 %35
  %56 = load i32, i32* %55, align 4, !tbaa !5
  %57 = add nsw i32 %56, %27
  store i32 %57, i32* %55, align 4, !tbaa !5
  %58 = getelementptr inbounds [9 x [9 x i32]], [9 x [9 x i32]]* %5, i64 0, i64 %22, i64 %39
  %59 = load i32, i32* %58, align 4, !tbaa !5
  %60 = add nsw i32 %59, %27
  store i32 %60, i32* %58, align 4, !tbaa !5
  br label %61

61:                                               ; preds = %29, %31
  %62 = phi i64 [ %30, %29 ], [ %35, %31 ]
  %63 = add nuw nsw i64 %24, 1
  %64 = icmp eq i64 %63, 9
  br i1 %64, label %65, label %23, !llvm.loop !9

65:                                               ; preds = %61
  %66 = add nuw nsw i64 %19, 1
  %67 = add nsw i64 %20, 1
  %68 = icmp eq i64 %66, 9
  br i1 %68, label %69, label %18, !llvm.loop !11

69:                                               ; preds = %65
  call void @llvm.memcpy.p0i8.p0i8.i64(i8* noundef nonnull align 16 dereferenceable(324) %4, i8* noundef nonnull align 16 dereferenceable(324) %6, i64 324, i1 false)
  %70 = add nuw i32 %17, 1
  %71 = icmp eq i32 %17, %13
  br i1 %71, label %15, label %16, !llvm.loop !12

72:                                               ; preds = %73
  call void @llvm.lifetime.end.p0i8(i64 324, i8* nonnull %6) #5
  call void @llvm.lifetime.end.p0i8(i64 324, i8* nonnull %4) #5
  call void @llvm.lifetime.end.p0i8(i64 4, i8* nonnull %8) #5
  call void @llvm.lifetime.end.p0i8(i64 4, i8* nonnull %7) #5
  ret i32 0

73:                                               ; preds = %15, %73
  %74 = phi i64 [ %102, %73 ], [ 0, %15 ]
  %75 = getelementptr inbounds [9 x [9 x i32]], [9 x [9 x i32]]* %5, i64 0, i64 %74, i64 8
  %76 = getelementptr inbounds [9 x [9 x i32]], [9 x [9 x i32]]* %5, i64 0, i64 %74, i64 0
  %77 = load i32, i32* %76, align 4, !tbaa !5
  %78 = call i32 (i8*, ...) @printf(i8* nonnull dereferenceable(1) getelementptr inbounds ([4 x i8], [4 x i8]* @.str.2, i64 0, i64 0), i32 %77)
  %79 = getelementptr inbounds [9 x [9 x i32]], [9 x [9 x i32]]* %5, i64 0, i64 %74, i64 1
  %80 = load i32, i32* %79, align 4, !tbaa !5
  %81 = call i32 (i8*, ...) @printf(i8* nonnull dereferenceable(1) getelementptr inbounds ([4 x i8], [4 x i8]* @.str.2, i64 0, i64 0), i32 %80)
  %82 = getelementptr inbounds [9 x [9 x i32]], [9 x [9 x i32]]* %5, i64 0, i64 %74, i64 2
  %83 = load i32, i32* %82, align 4, !tbaa !5
  %84 = call i32 (i8*, ...) @printf(i8* nonnull dereferenceable(1) getelementptr inbounds ([4 x i8], [4 x i8]* @.str.2, i64 0, i64 0), i32 %83)
  %85 = getelementptr inbounds [9 x [9 x i32]], [9 x [9 x i32]]* %5, i64 0, i64 %74, i64 3
  %86 = load i32, i32* %85, align 4, !tbaa !5
  %87 = call i32 (i8*, ...) @printf(i8* nonnull dereferenceable(1) getelementptr inbounds ([4 x i8], [4 x i8]* @.str.2, i64 0, i64 0), i32 %86)
  %88 = getelementptr inbounds [9 x [9 x i32]], [9 x [9 x i32]]* %5, i64 0, i64 %74, i64 4
  %89 = load i32, i32* %88, align 4, !tbaa !5
  %90 = call i32 (i8*, ...) @printf(i8* nonnull dereferenceable(1) getelementptr inbounds ([4 x i8], [4 x i8]* @.str.2, i64 0, i64 0), i32 %89)
  %91 = getelementptr inbounds [9 x [9 x i32]], [9 x [9 x i32]]* %5, i64 0, i64 %74, i64 5
  %92 = load i32, i32* %91, align 4, !tbaa !5
  %93 = call i32 (i8*, ...) @printf(i8* nonnull dereferenceable(1) getelementptr inbounds ([4 x i8], [4 x i8]* @.str.2, i64 0, i64 0), i32 %92)
  %94 = getelementptr inbounds [9 x [9 x i32]], [9 x [9 x i32]]* %5, i64 0, i64 %74, i64 6
  %95 = load i32, i32* %94, align 4, !tbaa !5
  %96 = call i32 (i8*, ...) @printf(i8* nonnull dereferenceable(1) getelementptr inbounds ([4 x i8], [4 x i8]* @.str.2, i64 0, i64 0), i32 %95)
  %97 = getelementptr inbounds [9 x [9 x i32]], [9 x [9 x i32]]* %5, i64 0, i64 %74, i64 7
  %98 = load i32, i32* %97, align 4, !tbaa !5
  %99 = call i32 (i8*, ...) @printf(i8* nonnull dereferenceable(1) getelementptr inbounds ([4 x i8], [4 x i8]* @.str.2, i64 0, i64 0), i32 %98)
  %100 = load i32, i32* %75, align 4, !tbaa !5
  %101 = call i32 (i8*, ...) @printf(i8* nonnull dereferenceable(1) getelementptr inbounds ([4 x i8], [4 x i8]* @.str.1, i64 0, i64 0), i32 %100)
  %102 = add nuw nsw i64 %74, 1
  %103 = icmp eq i64 %102, 9
  br i1 %103, label %72, label %73, !llvm.loop !13
}

; Function Attrs: argmemonly mustprogress nofree nosync nounwind willreturn
declare void @llvm.lifetime.start.p0i8(i64 immarg, i8* nocapture) #1

; Function Attrs: nofree nounwind
declare noundef i32 @__isoc99_scanf(i8* nocapture noundef readonly, ...) local_unnamed_addr #2

; Function Attrs: nofree nounwind
declare noundef i32 @printf(i8* nocapture noundef readonly, ...) local_unnamed_addr #2

; Function Attrs: argmemonly mustprogress nofree nosync nounwind willreturn
declare void @llvm.lifetime.end.p0i8(i64 immarg, i8* nocapture) #1

; Function Attrs: argmemonly nofree nounwind willreturn writeonly
declare void @llvm.memset.p0i8.i64(i8* nocapture writeonly, i8, i64, i1 immarg) #3

; Function Attrs: argmemonly nofree nounwind willreturn
declare void @llvm.memcpy.p0i8.p0i8.i64(i8* noalias nocapture writeonly, i8* noalias nocapture readonly, i64, i1 immarg) #4


!llvm.module.flags = !{!0, !1, !2, !3}
!llvm.ident = !{!4}

!0 = !{i32 1, !"wchar_size", i32 4}
!1 = !{i32 7, !"PIC Level", i32 2}
!2 = !{i32 7, !"PIE Level", i32 2}
!3 = !{i32 7, !"uwtable", i32 1}
!4 = !{!"clang version 13.0.0"}
!5 = !{!6, !6, i64 0}
!6 = !{!"int", !7, i64 0}
!7 = !{!"omnipotent char", !8, i64 0}
!8 = !{!"Simple C/C++ TBAA"}
!9 = distinct !{!9, !10}
!10 = !{!"llvm.loop.mustprogress"}
!11 = distinct !{!11, !10}
!12 = distinct !{!12, !10}
!13 = distinct !{!13, !10}
